; Function Attrs: mustprogress uwtable
define dso_local void @_ZN7doctest6StringC2ERSij(ptr noundef nonnull align 8 dereferenceable(24) initializes((23, 24)) %0, ptr noundef nonnull align 8 dereferenceable(16) %1, i32 noundef %2) unnamed_addr #8 align 2 {
  %4 = icmp ult i32 %2, 24
  br i1 %4, label %5, label %11

5:                                                ; preds = %3
  %6 = zext nneg i32 %2 to i64
  %7 = getelementptr inbounds nuw [24 x i8], ptr %0, i64 0, i64 %6
  store i8 0, ptr %7, align 1, !tbaa !38
  %8 = trunc nuw i32 %2 to i8
  %9 = sub nuw nsw i8 23, %8
  %10 = getelementptr inbounds nuw i8, ptr %0, i64 23
  store i8 %9, ptr %10, align 1, !tbaa !38
  br label %_ZN7doctest6String8allocateEj.exit

11:                                               ; preds = %3
  %12 = getelementptr inbounds nuw i8, ptr %0, i64 23
  store i8 -128, ptr %12, align 1, !tbaa !38
  %13 = getelementptr inbounds nuw i8, ptr %0, i64 8
  store i32 %2, ptr %13, align 8, !tbaa !38
  %14 = add i32 %2, 1
  %15 = getelementptr inbounds nuw i8, ptr %0, i64 12
  store i32 %14, ptr %15, align 4, !tbaa !38
  %16 = zext i32 %14 to i64
  %17 = tail call noalias noundef nonnull ptr @_Znam(i64 noundef %16) #51
  store ptr %17, ptr %0, align 8, !tbaa !38
  %18 = zext i32 %2 to i64
  %19 = getelementptr inbounds nuw i8, ptr %17, i64 %18
  store i8 0, ptr %19, align 1, !tbaa !38
  br label %_ZN7doctest6String8allocateEj.exit

_ZN7doctest6String8allocateEj.exit:               ; preds = %5, %11
  %.pre-phi = phi i64 [ %6, %5 ], [ %18, %11 ]
  %.0.i = phi ptr [ %0, %5 ], [ %17, %11 ]
  %20 = tail call noundef nonnull align 8 dereferenceable(16) ptr @_ZNSi4readEPcl(ptr noundef nonnull align 8 dereferenceable(16) %1, ptr noundef nonnull %.0.i, i64 noundef %.pre-phi)
  ret void
}